target datalayout = "e-m:e-p270:32:32-p271:32:32-p272:64:64-i64:64-i128:128-f80:128-n8:16:32:64-S128"
target triple = "x86_64-pc-linux-gnu"

%struct.JSClassDef = type { ptr, ptr, ptr, ptr, ptr }
%struct.JSValue = type { %union.JSValueUnion, i64 }
%union.JSValueUnion = type { double }
%struct.JSThreadState = type { %struct.list_head, %struct.list_head, %struct.list_head, %struct.list_head, i32, i32, ptr, ptr }
%struct.list_head = type { ptr, ptr }

@.str.10 = private unnamed_addr constant [7 x i8] c"Worker\00", align 1
@os_poll_func = internal global ptr null, align 8
@js_worker_class_id = internal global i32 0, align 4
@js_worker_class = internal global %struct.JSClassDef { ptr @.str.10, ptr @js_worker_finalizer, ptr null, ptr null, ptr null }, align 8
@.str.101 = private unnamed_addr constant [7 x i8] c"parent\00", align 1

; Function Attrs: nounwind uwtable
define internal i32 @js_os_init(ptr noundef %0, ptr noundef %1) #0 {
  %3 = alloca ptr, align 8
  %4 = alloca ptr, align 8
  %5 = alloca ptr, align 8
  %6 = alloca ptr, align 8
  %7 = alloca %struct.JSValue, align 8
  %8 = alloca %struct.JSValue, align 8
  %9 = alloca %struct.JSValue, align 8
  %10 = alloca %struct.JSValue, align 8
  %11 = alloca %struct.JSValue, align 8
  %12 = alloca %struct.JSValue, align 8
  store ptr %0, ptr %3, align 8
  store ptr %1, ptr %4, align 8
  store ptr @js_os_poll, ptr @os_poll_func, align 8
  %13 = load ptr, ptr %3, align 8
  %14 = call ptr @JS_GetRuntime(ptr noundef %13)
  store ptr %14, ptr %5, align 8
  %15 = load ptr, ptr %5, align 8
  %16 = call ptr @JS_GetRuntimeOpaque(ptr noundef %15)
  store ptr %16, ptr %6, align 8
  %17 = call i32 @JS_NewClassID(ptr noundef @js_worker_class_id)
  %18 = load ptr, ptr %3, align 8
  %19 = call ptr @JS_GetRuntime(ptr noundef %18)
  %20 = load i32, ptr @js_worker_class_id, align 4
  %21 = call i32 @JS_NewClass(ptr noundef %19, i32 noundef %20, ptr noundef @js_worker_class)
  %22 = load ptr, ptr %3, align 8
  %23 = call { i64, i64 } @JS_NewObject(ptr noundef %22)
  %24 = getelementptr inbounds { i64, i64 }, ptr %9, i32 0, i32 0
  %25 = extractvalue { i64, i64 } %23, 0
  store i64 %25, ptr %24, align 8
  %26 = getelementptr inbounds { i64, i64 }, ptr %9, i32 0, i32 1
  %27 = extractvalue { i64, i64 } %23, 1
  store i64 %27, ptr %26, align 8
  call void @llvm.memcpy.p0.p0.i64(ptr align 8 %7, ptr align 8 %9, i64 16, i1 false)
  %28 = load ptr, ptr %3, align 8
  %29 = getelementptr inbounds { i64, i64 }, ptr %7, i32 0, i32 0
  %30 = load i64, ptr %29, align 8
  %31 = getelementptr inbounds { i64, i64 }, ptr %7, i32 0, i32 1
  %32 = load i64, ptr %31, align 8
  call void @JS_SetPropertyFunctionList(ptr noundef %28, i64 %30, i64 %32, ptr noundef @js_worker_proto_funcs, i32 noundef 2)
  %33 = load ptr, ptr %3, align 8
  %34 = call { i64, i64 } @JS_NewCFunction2(ptr noundef %33, ptr noundef @js_worker_ctor, ptr noundef @.str.10, i32 noundef 1, i32 noundef 2, i32 noundef 0)
  %35 = getelementptr inbounds { i64, i64 }, ptr %10, i32 0, i32 0
  %36 = extractvalue { i64, i64 } %34, 0
  store i64 %36, ptr %35, align 8
  %37 = getelementptr inbounds { i64, i64 }, ptr %10, i32 0, i32 1
  %38 = extractvalue { i64, i64 } %34, 1
  store i64 %38, ptr %37, align 8
  call void @llvm.memcpy.p0.p0.i64(ptr align 8 %8, ptr align 8 %10, i64 16, i1 false)
  %39 = load ptr, ptr %3, align 8
  %40 = getelementptr inbounds { i64, i64 }, ptr %8, i32 0, i32 0
  %41 = load i64, ptr %40, align 8
  %42 = getelementptr inbounds { i64, i64 }, ptr %8, i32 0, i32 1
  %43 = load i64, ptr %42, align 8
  %44 = getelementptr inbounds { i64, i64 }, ptr %7, i32 0, i32 0
  %45 = load i64, ptr %44, align 8
  %46 = getelementptr inbounds { i64, i64 }, ptr %7, i32 0, i32 1
  %47 = load i64, ptr %46, align 8
  call void @JS_SetConstructor(ptr noundef %39, i64 %41, i64 %43, i64 %45, i64 %47)
  %48 = load ptr, ptr %3, align 8
  %49 = load i32, ptr @js_worker_class_id, align 4
  %50 = getelementptr inbounds { i64, i64 }, ptr %7, i32 0, i32 0
  %51 = load i64, ptr %50, align 8
  %52 = getelementptr inbounds { i64, i64 }, ptr %7, i32 0, i32 1
  %53 = load i64, ptr %52, align 8
  call void @JS_SetClassProto(ptr noundef %48, i32 noundef %49, i64 %51, i64 %53)
  %54 = load ptr, ptr %6, align 8
  %55 = getelementptr inbounds %struct.JSThreadState, ptr %54, i32 0, i32 6
  %56 = load ptr, ptr %55, align 8
  %57 = icmp ne ptr %56, null
  br i1 %57, label %58, label %92

58:                                               ; preds = %2
  %59 = load ptr, ptr %6, align 8
  %60 = getelementptr inbounds %struct.JSThreadState, ptr %59, i32 0, i32 7
  %61 = load ptr, ptr %60, align 8
  %62 = icmp ne ptr %61, null
  br i1 %62, label %63, label %92

63:                                               ; preds = %58
  %64 = load ptr, ptr %3, align 8
  %65 = load ptr, ptr %3, align 8
  %66 = getelementptr inbounds %struct.JSValue, ptr %12, i32 0, i32 0
  store i32 0, ptr %66, align 8
  %67 = getelementptr inbounds %struct.JSValue, ptr %12, i32 0, i32 1
  store i64 3, ptr %67, align 8
  %68 = load ptr, ptr %6, align 8
  %69 = getelementptr inbounds %struct.JSThreadState, ptr %68, i32 0, i32 6
  %70 = load ptr, ptr %69, align 8
  %71 = load ptr, ptr %6, align 8
  %72 = getelementptr inbounds %struct.JSThreadState, ptr %71, i32 0, i32 7
  %73 = load ptr, ptr %72, align 8
  %74 = getelementptr inbounds { i64, i64 }, ptr %12, i32 0, i32 0
  %75 = load i64, ptr %74, align 8
  %76 = getelementptr inbounds { i64, i64 }, ptr %12, i32 0, i32 1
  %77 = load i64, ptr %76, align 8
  %78 = call { i64, i64 } @js_worker_ctor_internal(ptr noundef %65, i64 %75, i64 %77, ptr noundef %70, ptr noundef %73)
  %79 = getelementptr inbounds { i64, i64 }, ptr %11, i32 0, i32 0
  %80 = extractvalue { i64, i64 } %78, 0
  store i64 %80, ptr %79, align 8
  %81 = getelementptr inbounds { i64, i64 }, ptr %11, i32 0, i32 1
  %82 = extractvalue { i64, i64 } %78, 1
  store i64 %82, ptr %81, align 8
  %83 = getelementptr inbounds { i64, i64 }, ptr %8, i32 0, i32 0
  %84 = load i64, ptr %83, align 8
  %85 = getelementptr inbounds { i64, i64 }, ptr %8, i32 0, i32 1
  %86 = load i64, ptr %85, align 8
  %87 = getelementptr inbounds { i64, i64 }, ptr %11, i32 0, i32 0
  %88 = load i64, ptr %87, align 8
  %89 = getelementptr inbounds { i64, i64 }, ptr %11, i32 0, i32 1
  %90 = load i64, ptr %89, align 8
  %91 = call i32 @JS_DefinePropertyValueStr(ptr noundef %64, i64 %84, i64 %86, ptr noundef @.str.101, i64 %88, i64 %90, i32 noundef 7)
  br label %92

92:                                               ; preds = %63, %58, %2
  %93 = load ptr, ptr %3, align 8
  %94 = load ptr, ptr %4, align 8
  %95 = getelementptr inbounds { i64, i64 }, ptr %8, i32 0, i32 0
  %96 = load i64, ptr %95, align 8
  %97 = getelementptr inbounds { i64, i64 }, ptr %8, i32 0, i32 1
  %98 = load i64, ptr %97, align 8
  %99 = call i32 @JS_SetModuleExport(ptr noundef %93, ptr noundef %94, ptr noundef @.str.10, i64 %96, i64 %98)
  %100 = load ptr, ptr %3, align 8
  %101 = load ptr, ptr %4, align 8
  %102 = call i32 @JS_SetModuleExportList(ptr noundef %100, ptr noundef %101, ptr noundef @js_os_funcs, i32 noundef 71)
  ret i32 %102
}