; Function Attrs: nounwind uwtable
define internal i32 @js_os_init(ptr noundef %0, ptr noundef %1) #0 {
  store ptr @js_os_poll, ptr @os_poll_func, align 8
  %3 = tail call ptr @JS_GetRuntime(ptr noundef %0) #29
  %4 = tail call ptr @JS_GetRuntimeOpaque(ptr noundef %3) #29
  %5 = tail call i32 @JS_NewClassID(ptr noundef nonnull @js_worker_class_id) #29
  %6 = tail call ptr @JS_GetRuntime(ptr noundef %0) #29
  %7 = load i32, ptr @js_worker_class_id, align 4
  %8 = tail call i32 @JS_NewClass(ptr noundef %6, i32 noundef %7, ptr noundef nonnull @js_worker_class) #29
  %9 = tail call { i64, i64 } @JS_NewObject(ptr noundef %0) #29
  %10 = extractvalue { i64, i64 } %9, 0
  %11 = extractvalue { i64, i64 } %9, 1
  tail call void @JS_SetPropertyFunctionList(ptr noundef %0, i64 %10, i64 %11, ptr noundef nonnull @js_worker_proto_funcs, i32 noundef 2) #29
  %12 = tail call { i64, i64 } @JS_NewCFunction2(ptr noundef %0, ptr noundef nonnull @js_worker_ctor, ptr noundef nonnull @.str.10, i32 noundef 1, i32 noundef 2, i32 noundef 0) #29
  %13 = extractvalue { i64, i64 } %12, 0
  %14 = extractvalue { i64, i64 } %12, 1
  tail call void @JS_SetConstructor(ptr noundef %0, i64 %13, i64 %14, i64 %10, i64 %11) #29
  %15 = load i32, ptr @js_worker_class_id, align 4
  tail call void @JS_SetClassProto(ptr noundef %0, i32 noundef %15, i64 %10, i64 %11) #29
  %16 = getelementptr inbounds i8, ptr %4, i64 72
  %17 = load ptr, ptr %16, align 8
  %.not = icmp eq ptr %17, null
  br i1 %.not, label %26, label %18

18:                                               ; preds = %2
  %19 = getelementptr inbounds i8, ptr %4, i64 80
  %20 = load ptr, ptr %19, align 8
  %.not36 = icmp eq ptr %20, null
  br i1 %.not36, label %26, label %21

21:                                               ; preds = %18
  %22 = tail call fastcc { i64, i64 } @js_worker_ctor_internal(ptr noundef %0, i64 0, i64 3, ptr noundef nonnull %17, ptr noundef nonnull %20)
  %23 = extractvalue { i64, i64 } %22, 0
  %24 = extractvalue { i64, i64 } %22, 1
  %25 = tail call i32 @JS_DefinePropertyValueStr(ptr noundef %0, i64 %13, i64 %14, ptr noundef nonnull @.str.101, i64 %23, i64 %24, i32 noundef 7) #29
  br label %26

26:                                               ; preds = %21, %18, %2
  %27 = tail call i32 @JS_SetModuleExport(ptr noundef %0, ptr noundef %1, ptr noundef nonnull @.str.10, i64 %13, i64 %14) #29
  %28 = tail call i32 @JS_SetModuleExportList(ptr noundef %0, ptr noundef %1, ptr noundef nonnull @js_os_funcs, i32 noundef 71) #29
  ret i32 %28
}